; Function Attrs: nounwind uwtable
define zeroext range(i8 0, 2) i8 @l_Array_anyMUnsafe_any___at_Lean_Meta_getFVarSetToGeneralize___spec__28(ptr noundef %0, ptr noundef %1, ptr noundef readonly captures(none) %2, i64 noundef %3, i64 noundef %4) local_unnamed_addr #0 {
  %.not56 = icmp eq i64 %3, %4
  br i1 %.not56, label %.._crit_edge_crit_edge, label %.lr.ph

.._crit_edge_crit_edge:                           ; preds = %5
  %.pre = ptrtoint ptr %1 to i64
  %.pre58 = and i64 %.pre, 1
  br label %._crit_edge

.lr.ph:                                           ; preds = %5
  %6 = getelementptr inbounds nuw i8, ptr %2, i64 24
  %7 = ptrtoint ptr %1 to i64
  %8 = and i64 %7, 1
  %.not53 = icmp eq i64 %8, 0
  %9 = ptrtoint ptr %0 to i64
  %10 = and i64 %9, 1
  %.not54 = icmp eq i64 %10, 0
  br label %13

11:                                               ; preds = %lean_dec.exit31
  %12 = add i64 %.02257, 1
  %.not = icmp eq i64 %12, %4
  br i1 %.not, label %._crit_edge, label %13

13:                                               ; preds = %.lr.ph, %11
  %.02257 = phi i64 [ %3, %.lr.ph ], [ %12, %11 ]
  %14 = getelementptr inbounds nuw [0 x ptr], ptr %6, i64 0, i64 %.02257
  %15 = load ptr, ptr %14, align 8, !tbaa !4
  %16 = ptrtoint ptr %15 to i64
  %17 = and i64 %16, 1
  %.not.i40 = icmp eq i64 %17, 0
  br i1 %.not.i40, label %18, label %lean_array_uget.exit

18:                                               ; preds = %13
  %.val.i.i = load i32, ptr %15, align 4, !tbaa !8
  %19 = icmp sgt i32 %.val.i.i, 0
  br i1 %19, label %20, label %22, !prof !11

20:                                               ; preds = %18
  %21 = add nuw i32 %.val.i.i, 1
  store i32 %21, ptr %15, align 4, !tbaa !8
  br label %lean_array_uget.exit

22:                                               ; preds = %18
  %.not.i.i = icmp eq i32 %.val.i.i, 0
  br i1 %.not.i.i, label %lean_array_uget.exit, label %23

23:                                               ; preds = %22
  tail call void @lean_inc_ref_cold(ptr noundef nonnull %15) #4
  br label %lean_array_uget.exit

lean_array_uget.exit:                             ; preds = %13, %20, %22, %23
  br i1 %.not53, label %24, label %lean_inc.exit27

24:                                               ; preds = %lean_array_uget.exit
  %.val.i = load i32, ptr %1, align 4, !tbaa !8
  %25 = icmp sgt i32 %.val.i, 0
  br i1 %25, label %26, label %28, !prof !11

26:                                               ; preds = %24
  %27 = add nuw i32 %.val.i, 1
  store i32 %27, ptr %1, align 4, !tbaa !8
  br label %lean_inc.exit27

28:                                               ; preds = %24
  %.not.i41 = icmp eq i32 %.val.i, 0
  br i1 %.not.i41, label %lean_inc.exit27, label %29

29:                                               ; preds = %28
  tail call void @lean_inc_ref_cold(ptr noundef nonnull %1) #4
  br label %lean_inc.exit27

lean_inc.exit27:                                  ; preds = %29, %28, %26, %lean_array_uget.exit
  br i1 %.not54, label %30, label %lean_inc.exit

30:                                               ; preds = %lean_inc.exit27
  %.val.i42 = load i32, ptr %0, align 4, !tbaa !8
  %31 = icmp sgt i32 %.val.i42, 0
  br i1 %31, label %32, label %34, !prof !11

32:                                               ; preds = %30
  %33 = add nuw i32 %.val.i42, 1
  store i32 %33, ptr %0, align 4, !tbaa !8
  br label %lean_inc.exit

34:                                               ; preds = %30
  %.not.i43 = icmp eq i32 %.val.i42, 0
  br i1 %.not.i43, label %lean_inc.exit, label %35

35:                                               ; preds = %34
  tail call void @lean_inc_ref_cold(ptr noundef nonnull %0) #4
  br label %lean_inc.exit

lean_inc.exit:                                    ; preds = %35, %34, %32, %lean_inc.exit27
  %36 = tail call zeroext i8 @l_Lean_PersistentArray_anyMAux___at_Lean_Meta_getFVarSetToGeneralize___spec__27(ptr noundef %0, ptr noundef %1, ptr noundef %15)
  br i1 %.not.i40, label %37, label %lean_dec.exit31

37:                                               ; preds = %lean_inc.exit
  %38 = load i32, ptr %15, align 4, !tbaa !8
  %39 = icmp sgt i32 %38, 1
  br i1 %39, label %40, label %42, !prof !11

40:                                               ; preds = %37
  %41 = add nsw i32 %38, -1
  store i32 %41, ptr %15, align 4, !tbaa !8
  br label %lean_dec.exit31

42:                                               ; preds = %37
  %.not.i = icmp eq i32 %38, 0
  br i1 %.not.i, label %lean_dec.exit31, label %43

43:                                               ; preds = %42
  tail call void @lean_dec_ref_cold(ptr noundef nonnull %15) #4
  br label %lean_dec.exit31

lean_dec.exit31:                                  ; preds = %43, %42, %40, %lean_inc.exit
  %44 = icmp eq i8 %36, 0
  br i1 %44, label %11, label %45

45:                                               ; preds = %lean_dec.exit31
  br i1 %.not53, label %46, label %lean_dec.exit30

46:                                               ; preds = %45
  %47 = load i32, ptr %1, align 4, !tbaa !8
  %48 = icmp sgt i32 %47, 1
  br i1 %48, label %49, label %51, !prof !11

49:                                               ; preds = %46
  %50 = add nsw i32 %47, -1
  store i32 %50, ptr %1, align 4, !tbaa !8
  br label %lean_dec.exit30

51:                                               ; preds = %46
  %.not.i32 = icmp eq i32 %47, 0
  br i1 %.not.i32, label %lean_dec.exit30, label %52

52:                                               ; preds = %51
  tail call void @lean_dec_ref_cold(ptr noundef nonnull %1) #4
  br label %lean_dec.exit30

lean_dec.exit30:                                  ; preds = %52, %51, %49, %45
  br i1 %.not54, label %53, label %76

53:                                               ; preds = %lean_dec.exit30
  %54 = load i32, ptr %0, align 4, !tbaa !8
  %55 = icmp sgt i32 %54, 1
  br i1 %55, label %56, label %58, !prof !11

56:                                               ; preds = %53
  %57 = add nsw i32 %54, -1
  store i32 %57, ptr %0, align 4, !tbaa !8
  br label %76

58:                                               ; preds = %53
  %.not.i34 = icmp eq i32 %54, 0
  br i1 %.not.i34, label %76, label %59

59:                                               ; preds = %58
  tail call void @lean_dec_ref_cold(ptr noundef nonnull %0) #4
  br label %76

._crit_edge:                                      ; preds = %11, %.._crit_edge_crit_edge
  %.pre-phi59 = phi i64 [ %.pre58, %.._crit_edge_crit_edge ], [ %8, %11 ]
  %.not51 = icmp eq i64 %.pre-phi59, 0
  br i1 %.not51, label %60, label %lean_dec.exit28

60:                                               ; preds = %._crit_edge
  %61 = load i32, ptr %1, align 4, !tbaa !8
  %62 = icmp sgt i32 %61, 1
  br i1 %62, label %63, label %65, !prof !11

63:                                               ; preds = %60
  %64 = add nsw i32 %61, -1
  store i32 %64, ptr %1, align 4, !tbaa !8
  br label %lean_dec.exit28

65:                                               ; preds = %60
  %.not.i36 = icmp eq i32 %61, 0
  br i1 %.not.i36, label %lean_dec.exit28, label %66

66:                                               ; preds = %65
  tail call void @lean_dec_ref_cold(ptr noundef nonnull %1) #4
  br label %lean_dec.exit28

lean_dec.exit28:                                  ; preds = %66, %65, %63, %._crit_edge
  %67 = ptrtoint ptr %0 to i64
  %68 = and i64 %67, 1
  %.not52 = icmp eq i64 %68, 0
  br i1 %.not52, label %69, label %76

69:                                               ; preds = %lean_dec.exit28
  %70 = load i32, ptr %0, align 4, !tbaa !8
  %71 = icmp sgt i32 %70, 1
  br i1 %71, label %72, label %74, !prof !11

72:                                               ; preds = %69
  %73 = add nsw i32 %70, -1
  store i32 %73, ptr %0, align 4, !tbaa !8
  br label %76

74:                                               ; preds = %69
  %.not.i38 = icmp eq i32 %70, 0
  br i1 %.not.i38, label %76, label %75

75:                                               ; preds = %74
  tail call void @lean_dec_ref_cold(ptr noundef nonnull %0) #4
  br label %76

76:                                               ; preds = %59, %58, %56, %lean_dec.exit30, %75, %74, %72, %lean_dec.exit28
  %.2.ph = phi i8 [ 0, %lean_dec.exit28 ], [ 0, %72 ], [ 0, %74 ], [ 0, %75 ], [ 1, %lean_dec.exit30 ], [ 1, %56 ], [ 1, %58 ], [ 1, %59 ]
  ret i8 %.2.ph
}